target datalayout = "e-m:e-p270:32:32-p271:32:32-p272:64:64-i64:64-i128:128-f80:128-n8:16:32:64-S128"
target triple = "x86_64-unknown-linux-gnu"

%"struct.google::SiteFlag" = type { ptr, ptr, i64, ptr }
%"class.google::LogMessageVoidify" = type { i8 }
%"class.google::LogMessage" = type { ptr, ptr, %"struct.google::LogMessageTime" }
%"struct.google::LogMessageTime" = type { %struct.tm, i64, i32, i64 }
%struct.tm = type { i32, i32, i32, i32, i32, i32, i32, i32, i32, i64, ptr }
%"class.proxygen::Window" = type { i32, i32 }

@.str = private unnamed_addr constant [124 x i8] c"generated/home/dtcxzyw/WorkSpace/Projects/compilers/llvm-opt-benchmark/bench/proxygen/proxygen/proxygen/lib/http/Window.cpp\00", align 1
@_ZN3fLI7FLAGS_vE = external global i32, align 4
@_ZZN8proxygen6Window11setCapacityEjE8vlocal__ = internal global %"struct.google::SiteFlag" zeroinitializer, align 8
@.str.13 = private unnamed_addr constant [37 x i8] c"Cannot set initial window > 2^31 -1.\00", align 1
@_ZZN8proxygen6Window11setCapacityEjE8vlocal___0 = internal global %"struct.google::SiteFlag" zeroinitializer, align 8
@.str.14 = private unnamed_addr constant [46 x i8] c"Increasing the capacity overflowed the window\00", align 1

; Function Attrs: mustprogress nounwind uwtable
define noundef i32 @_ZNK8proxygen6Window7getSizeEv(ptr noundef nonnull align 4 dereferenceable(8) %this) #1 align 2 {
entry:
  %this.addr = alloca ptr, align 8
  store ptr %this, ptr %this.addr, align 8
  %this1 = load ptr, ptr %this.addr, align 8
  %capacity_ = getelementptr inbounds %"class.proxygen::Window", ptr %this1, i32 0, i32 1
  %0 = load i32, ptr %capacity_, align 4
  %outstanding_ = getelementptr inbounds %"class.proxygen::Window", ptr %this1, i32 0, i32 0
  %1 = load i32, ptr %outstanding_, align 4
  %sub = sub nsw i32 %0, %1
  ret i32 %sub
}

; Function Attrs: mustprogress nounwind uwtable
define linkonce_odr void @_ZN6google17LogMessageVoidifyanERSo(ptr noundef nonnull align 1 dereferenceable(1) %this, ptr noundef nonnull align 8 dereferenceable(8) %0) #1 comdat align 2 {
entry:
  %this.addr = alloca ptr, align 8
  %.addr = alloca ptr, align 8
  store ptr %this, ptr %this.addr, align 8
  store ptr %0, ptr %.addr, align 8
  ret void
}

; Function Attrs: mustprogress nounwind uwtable
define linkonce_odr void @_ZN6google17LogMessageVoidifyC2Ev(ptr noundef nonnull align 1 dereferenceable(1) %this) unnamed_addr #1 comdat align 2 {
entry:
  %this.addr = alloca ptr, align 8
  store ptr %this, ptr %this.addr, align 8
  ret void
}

; Function Attrs: mustprogress nounwind uwtable
define linkonce_odr noundef i32 @_ZNSt14numeric_limitsIiE3maxEv() #1 comdat align 2 {
entry:
  ret i32 2147483647
}

; Function Attrs: mustprogress uwtable
define noundef zeroext i1 @_ZN8proxygen6Window11setCapacityEj(ptr noundef nonnull align 4 dereferenceable(8) %this, i32 noundef %capacity) #0 align 2 personality ptr @__gxx_personality_v0 {
entry:
  %retval = alloca i1, align 1
  %this.addr = alloca ptr, align 8
  %capacity.addr = alloca i32, align 4
  %verbose_level__ = alloca i32, align 4
  %tmp = alloca i8, align 1
  %ref.tmp = alloca %"class.google::LogMessageVoidify", align 1
  %ref.tmp7 = alloca %"class.google::LogMessage", align 8
  %cleanup.cond = alloca i1, align 1
  %exn.slot = alloca ptr, align 8
  %ehselector.slot = alloca i32, align 4
  %diff = alloca i32, align 4
  %size = alloca i32, align 4
  %verbose_level__24 = alloca i32, align 4
  %tmp25 = alloca i8, align 1
  %ref.tmp37 = alloca %"class.google::LogMessageVoidify", align 1
  %ref.tmp38 = alloca %"class.google::LogMessage", align 8
  %cleanup.cond39 = alloca i1, align 1
  store ptr %this, ptr %this.addr, align 8
  store i32 %capacity, ptr %capacity.addr, align 4
  %this1 = load ptr, ptr %this.addr, align 8
  %0 = load i32, ptr %capacity.addr, align 4
  %call = call noundef i32 @_ZNSt14numeric_limitsIiE3maxEv() #6
  %cmp = icmp ugt i32 %0, %call
  br i1 %cmp, label %if.then, label %if.end

if.then:                                          ; preds = %entry
  store i32 3, ptr %verbose_level__, align 4
  %1 = load ptr, ptr @_ZZN8proxygen6Window11setCapacityEjE8vlocal__, align 8
  %cmp2 = icmp eq ptr %1, null
  store i1 false, ptr %cleanup.cond, align 1
  br i1 %cmp2, label %cond.true, label %cond.false

cond.true:                                        ; preds = %if.then
  %2 = load i32, ptr %verbose_level__, align 4
  %call3 = call noundef zeroext i1 @_ZN6google11InitVLOG3__EPNS_8SiteFlagEPiPKci(ptr noundef @_ZZN8proxygen6Window11setCapacityEjE8vlocal__, ptr noundef @_ZN3fLI7FLAGS_vE, ptr noundef @.str, i32 noundef %2)
  br label %cond.end

cond.false:                                       ; preds = %if.then
  %3 = load ptr, ptr @_ZZN8proxygen6Window11setCapacityEjE8vlocal__, align 8
  %4 = load i32, ptr %3, align 4
  %5 = load i32, ptr %verbose_level__, align 4
  %cmp4 = icmp sge i32 %4, %5
  br label %cond.end

cond.end:                                         ; preds = %cond.false, %cond.true
  %cond = phi i1 [ %call3, %cond.true ], [ %cmp4, %cond.false ]
  %frombool = zext i1 %cond to i8
  store i8 %frombool, ptr %tmp, align 1
  %6 = load i8, ptr %tmp, align 1
  %tobool = trunc i8 %6 to i1
  br i1 %tobool, label %cond.false6, label %cond.true5

cond.true5:                                       ; preds = %cond.end
  br label %cond.end12

cond.false6:                                      ; preds = %cond.end
  call void @_ZN6google17LogMessageVoidifyC2Ev(ptr noundef nonnull align 1 dereferenceable(1) %ref.tmp)
  call void @_ZN6google10LogMessageC1EPKci(ptr noundef nonnull align 8 dereferenceable(96) %ref.tmp7, ptr noundef @.str, i32 noundef 83)
  store i1 true, ptr %cleanup.cond, align 1
  %call8 = invoke noundef nonnull align 8 dereferenceable(8) ptr @_ZN6google10LogMessage6streamEv(ptr noundef nonnull align 8 dereferenceable(96) %ref.tmp7)
          to label %invoke.cont unwind label %lpad

invoke.cont:                                      ; preds = %cond.false6
  %call10 = invoke noundef nonnull align 8 dereferenceable(8) ptr @_ZStlsISt11char_traitsIcEERSt13basic_ostreamIcT_ES5_PKc(ptr noundef nonnull align 8 dereferenceable(8) %call8, ptr noundef @.str.13)
          to label %invoke.cont9 unwind label %lpad

invoke.cont9:                                     ; preds = %invoke.cont
  invoke void @_ZN6google17LogMessageVoidifyanERSo(ptr noundef nonnull align 1 dereferenceable(1) %ref.tmp, ptr noundef nonnull align 8 dereferenceable(8) %call10)
          to label %invoke.cont11 unwind label %lpad

invoke.cont11:                                    ; preds = %invoke.cont9
  br label %cond.end12

cond.end12:                                       ; preds = %invoke.cont11, %cond.true5
  %cleanup.is_active = load i1, ptr %cleanup.cond, align 1
  br i1 %cleanup.is_active, label %cleanup.action, label %cleanup.done

cleanup.action:                                   ; preds = %cond.end12
  call void @_ZN6google10LogMessageD1Ev(ptr noundef nonnull align 8 dereferenceable(96) %ref.tmp7) #6
  br label %cleanup.done

cleanup.done:                                     ; preds = %cleanup.action, %cond.end12
  store i1 false, ptr %retval, align 1
  br label %return

lpad:                                             ; preds = %invoke.cont9, %invoke.cont, %cond.false6
  %7 = landingpad { ptr, i32 }
          cleanup
  %8 = extractvalue { ptr, i32 } %7, 0
  store ptr %8, ptr %exn.slot, align 8
  %9 = extractvalue { ptr, i32 } %7, 1
  store i32 %9, ptr %ehselector.slot, align 4
  %cleanup.is_active13 = load i1, ptr %cleanup.cond, align 1
  br i1 %cleanup.is_active13, label %cleanup.action14, label %cleanup.done15

cleanup.action14:                                 ; preds = %lpad
  call void @_ZN6google10LogMessageD1Ev(ptr noundef nonnull align 8 dereferenceable(96) %ref.tmp7) #6
  br label %cleanup.done15

cleanup.done15:                                   ; preds = %cleanup.action14, %lpad
  br label %eh.resume

if.end:                                           ; preds = %entry
  %10 = load i32, ptr %capacity.addr, align 4
  %capacity_ = getelementptr inbounds %"class.proxygen::Window", ptr %this1, i32 0, i32 1
  %11 = load i32, ptr %capacity_, align 4
  %sub = sub nsw i32 %10, %11
  store i32 %sub, ptr %diff, align 4
  %12 = load i32, ptr %diff, align 4
  %cmp16 = icmp sgt i32 %12, 0
  br i1 %cmp16, label %if.then17, label %if.end54

if.then17:                                        ; preds = %if.end
  %call18 = call noundef i32 @_ZNK8proxygen6Window7getSizeEv(ptr noundef nonnull align 4 dereferenceable(8) %this1)
  store i32 %call18, ptr %size, align 4
  %13 = load i32, ptr %size, align 4
  %cmp19 = icmp sgt i32 %13, 0
  br i1 %cmp19, label %land.lhs.true, label %if.end53

land.lhs.true:                                    ; preds = %if.then17
  %14 = load i32, ptr %diff, align 4
  %call20 = call noundef i32 @_ZNSt14numeric_limitsIiE3maxEv() #6
  %15 = load i32, ptr %size, align 4
  %sub21 = sub nsw i32 %call20, %15
  %cmp22 = icmp sgt i32 %14, %sub21
  br i1 %cmp22, label %if.then23, label %if.end53

if.then23:                                        ; preds = %land.lhs.true
  store i32 3, ptr %verbose_level__24, align 4
  %16 = load ptr, ptr @_ZZN8proxygen6Window11setCapacityEjE8vlocal___0, align 8
  %cmp26 = icmp eq ptr %16, null
  store i1 false, ptr %cleanup.cond39, align 1
  br i1 %cmp26, label %cond.true27, label %cond.false29

cond.true27:                                      ; preds = %if.then23
  %17 = load i32, ptr %verbose_level__24, align 4
  %call28 = call noundef zeroext i1 @_ZN6google11InitVLOG3__EPNS_8SiteFlagEPiPKci(ptr noundef @_ZZN8proxygen6Window11setCapacityEjE8vlocal___0, ptr noundef @_ZN3fLI7FLAGS_vE, ptr noundef @.str, i32 noundef %17)
  br label %cond.end31

cond.false29:                                     ; preds = %if.then23
  %18 = load ptr, ptr @_ZZN8proxygen6Window11setCapacityEjE8vlocal___0, align 8
  %19 = load i32, ptr %18, align 4
  %20 = load i32, ptr %verbose_level__24, align 4
  %cmp30 = icmp sge i32 %19, %20
  br label %cond.end31

cond.end31:                                       ; preds = %cond.false29, %cond.true27
  %cond32 = phi i1 [ %call28, %cond.true27 ], [ %cmp30, %cond.false29 ]
  %frombool33 = zext i1 %cond32 to i8
  store i8 %frombool33, ptr %tmp25, align 1
  %21 = load i8, ptr %tmp25, align 1
  %tobool34 = trunc i8 %21 to i1
  br i1 %tobool34, label %cond.false36, label %cond.true35

cond.true35:                                      ; preds = %cond.end31
  br label %cond.end46

cond.false36:                                     ; preds = %cond.end31
  call void @_ZN6google17LogMessageVoidifyC2Ev(ptr noundef nonnull align 1 dereferenceable(1) %ref.tmp37)
  call void @_ZN6google10LogMessageC1EPKci(ptr noundef nonnull align 8 dereferenceable(96) %ref.tmp38, ptr noundef @.str, i32 noundef 91)
  store i1 true, ptr %cleanup.cond39, align 1
  %call42 = invoke noundef nonnull align 8 dereferenceable(8) ptr @_ZN6google10LogMessage6streamEv(ptr noundef nonnull align 8 dereferenceable(96) %ref.tmp38)
          to label %invoke.cont41 unwind label %lpad40

invoke.cont41:                                    ; preds = %cond.false36
  %call44 = invoke noundef nonnull align 8 dereferenceable(8) ptr @_ZStlsISt11char_traitsIcEERSt13basic_ostreamIcT_ES5_PKc(ptr noundef nonnull align 8 dereferenceable(8) %call42, ptr noundef @.str.14)
          to label %invoke.cont43 unwind label %lpad40

invoke.cont43:                                    ; preds = %invoke.cont41
  invoke void @_ZN6google17LogMessageVoidifyanERSo(ptr noundef nonnull align 1 dereferenceable(1) %ref.tmp37, ptr noundef nonnull align 8 dereferenceable(8) %call44)
          to label %invoke.cont45 unwind label %lpad40

invoke.cont45:                                    ; preds = %invoke.cont43
  br label %cond.end46

cond.end46:                                       ; preds = %invoke.cont45, %cond.true35
  %cleanup.is_active47 = load i1, ptr %cleanup.cond39, align 1
  br i1 %cleanup.is_active47, label %cleanup.action48, label %cleanup.done49

cleanup.action48:                                 ; preds = %cond.end46
  call void @_ZN6google10LogMessageD1Ev(ptr noundef nonnull align 8 dereferenceable(96) %ref.tmp38) #6
  br label %cleanup.done49

cleanup.done49:                                   ; preds = %cleanup.action48, %cond.end46
  store i1 false, ptr %retval, align 1
  br label %return

lpad40:                                           ; preds = %invoke.cont43, %invoke.cont41, %cond.false36
  %22 = landingpad { ptr, i32 }
          cleanup
  %23 = extractvalue { ptr, i32 } %22, 0
  store ptr %23, ptr %exn.slot, align 8
  %24 = extractvalue { ptr, i32 } %22, 1
  store i32 %24, ptr %ehselector.slot, align 4
  %cleanup.is_active50 = load i1, ptr %cleanup.cond39, align 1
  br i1 %cleanup.is_active50, label %cleanup.action51, label %cleanup.done52

cleanup.action51:                                 ; preds = %lpad40
  call void @_ZN6google10LogMessageD1Ev(ptr noundef nonnull align 8 dereferenceable(96) %ref.tmp38) #6
  br label %cleanup.done52

cleanup.done52:                                   ; preds = %cleanup.action51, %lpad40
  br label %eh.resume

if.end53:                                         ; preds = %land.lhs.true, %if.then17
  br label %if.end54

if.end54:                                         ; preds = %if.end53, %if.end
  %25 = load i32, ptr %capacity.addr, align 4
  %capacity_55 = getelementptr inbounds %"class.proxygen::Window", ptr %this1, i32 0, i32 1
  store i32 %25, ptr %capacity_55, align 4
  store i1 true, ptr %retval, align 1
  br label %return

return:                                           ; preds = %if.end54, %cleanup.done49, %cleanup.done
  %26 = load i1, ptr %retval, align 1
  ret i1 %26

eh.resume:                                        ; preds = %cleanup.done52, %cleanup.done15
  %exn = load ptr, ptr %exn.slot, align 8
  %sel = load i32, ptr %ehselector.slot, align 4
  %lpad.val = insertvalue { ptr, i32 } poison, ptr %exn, 0
  %lpad.val56 = insertvalue { ptr, i32 } %lpad.val, i32 %sel, 1
  resume { ptr, i32 } %lpad.val56
}