; Function Attrs: mustprogress uwtable
define noundef zeroext i1 @_ZN8proxygen6Window11setCapacityEj(ptr noundef nonnull align 4 captures(none) dereferenceable(8) %this, i32 noundef %capacity) local_unnamed_addr #0 align 2 personality ptr @__gxx_personality_v0 {
entry:
  %ref.tmp7 = alloca %"class.google::LogMessage", align 8
  %ref.tmp38 = alloca %"class.google::LogMessage", align 8
  %cmp = icmp slt i32 %capacity, 0
  br i1 %cmp, label %if.then, label %if.end

if.then:                                          ; preds = %entry
  %0 = load ptr, ptr @_ZZN8proxygen6Window11setCapacityEjE8vlocal__, align 8
  %cmp2 = icmp eq ptr %0, null
  br i1 %cmp2, label %cond.true, label %cond.end

cond.true:                                        ; preds = %if.then
  %call3 = tail call noundef zeroext i1 @_ZN6google11InitVLOG3__EPNS_8SiteFlagEPiPKci(ptr noundef nonnull @_ZZN8proxygen6Window11setCapacityEjE8vlocal__, ptr noundef nonnull @_ZN3fLI7FLAGS_vE, ptr noundef nonnull @.str, i32 noundef 3)
  br i1 %call3, label %cond.false6, label %return

cond.end:                                         ; preds = %if.then
  %1 = load i32, ptr %0, align 4
  %cmp4 = icmp sgt i32 %1, 2
  br i1 %cmp4, label %cond.false6, label %return

cond.false6:                                      ; preds = %cond.true, %cond.end
  call void @_ZN6google10LogMessageC1EPKci(ptr noundef nonnull align 8 dereferenceable(96) %ref.tmp7, ptr noundef nonnull @.str, i32 noundef 83)
  %call8 = invoke noundef nonnull align 8 dereferenceable(8) ptr @_ZN6google10LogMessage6streamEv(ptr noundef nonnull align 8 dereferenceable(96) %ref.tmp7)
          to label %invoke.cont unwind label %lpad

invoke.cont:                                      ; preds = %cond.false6
  %call10 = invoke noundef nonnull align 8 dereferenceable(8) ptr @_ZStlsISt11char_traitsIcEERSt13basic_ostreamIcT_ES5_PKc(ptr noundef nonnull align 8 dereferenceable(8) %call8, ptr noundef nonnull @.str.13)
          to label %cleanup.action unwind label %lpad

cleanup.action:                                   ; preds = %invoke.cont
  call void @_ZN6google10LogMessageD1Ev(ptr noundef nonnull align 8 dereferenceable(96) %ref.tmp7) #7
  br label %return

lpad:                                             ; preds = %invoke.cont, %cond.false6
  %2 = landingpad { ptr, i32 }
          cleanup
  br label %eh.resume

if.end:                                           ; preds = %entry
  %capacity_ = getelementptr inbounds nuw i8, ptr %this, i64 4
  %3 = load i32, ptr %capacity_, align 4
  %sub = sub nsw i32 %capacity, %3
  %cmp16 = icmp sgt i32 %sub, 0
  br i1 %cmp16, label %if.then17, label %if.end54

if.then17:                                        ; preds = %if.end
  %4 = load i32, ptr %this, align 4
  %sub.i = sub nsw i32 %3, %4
  %cmp19 = icmp sgt i32 %sub.i, 0
  %sub21 = sub nuw nsw i32 2147483647, %sub.i
  %cmp22 = icmp samesign ugt i32 %sub, %sub21
  %or.cond = select i1 %cmp19, i1 %cmp22, i1 false
  br i1 %or.cond, label %if.then23, label %if.end54

if.then23:                                        ; preds = %if.then17
  %5 = load ptr, ptr @_ZZN8proxygen6Window11setCapacityEjE8vlocal___0, align 8
  %cmp26 = icmp eq ptr %5, null
  br i1 %cmp26, label %cond.true27, label %cond.end31

cond.true27:                                      ; preds = %if.then23
  %call28 = tail call noundef zeroext i1 @_ZN6google11InitVLOG3__EPNS_8SiteFlagEPiPKci(ptr noundef nonnull @_ZZN8proxygen6Window11setCapacityEjE8vlocal___0, ptr noundef nonnull @_ZN3fLI7FLAGS_vE, ptr noundef nonnull @.str, i32 noundef 3)
  br i1 %call28, label %cond.false36, label %return

cond.end31:                                       ; preds = %if.then23
  %6 = load i32, ptr %5, align 4
  %cmp30 = icmp sgt i32 %6, 2
  br i1 %cmp30, label %cond.false36, label %return

cond.false36:                                     ; preds = %cond.true27, %cond.end31
  call void @_ZN6google10LogMessageC1EPKci(ptr noundef nonnull align 8 dereferenceable(96) %ref.tmp38, ptr noundef nonnull @.str, i32 noundef 91)
  %call42 = invoke noundef nonnull align 8 dereferenceable(8) ptr @_ZN6google10LogMessage6streamEv(ptr noundef nonnull align 8 dereferenceable(96) %ref.tmp38)
          to label %invoke.cont41 unwind label %lpad40

invoke.cont41:                                    ; preds = %cond.false36
  %call44 = invoke noundef nonnull align 8 dereferenceable(8) ptr @_ZStlsISt11char_traitsIcEERSt13basic_ostreamIcT_ES5_PKc(ptr noundef nonnull align 8 dereferenceable(8) %call42, ptr noundef nonnull @.str.14)
          to label %cleanup.action48 unwind label %lpad40

cleanup.action48:                                 ; preds = %invoke.cont41
  call void @_ZN6google10LogMessageD1Ev(ptr noundef nonnull align 8 dereferenceable(96) %ref.tmp38) #7
  br label %return

lpad40:                                           ; preds = %invoke.cont41, %cond.false36
  %7 = landingpad { ptr, i32 }
          cleanup
  br label %eh.resume

if.end54:                                         ; preds = %if.then17, %if.end
  store i32 %capacity, ptr %capacity_, align 4
  br label %return

return:                                           ; preds = %cond.true27, %cond.true, %cleanup.action48, %cond.end31, %cleanup.action, %cond.end, %if.end54
  %retval.0 = phi i1 [ true, %if.end54 ], [ false, %cond.end ], [ false, %cleanup.action ], [ false, %cond.end31 ], [ false, %cleanup.action48 ], [ false, %cond.true ], [ false, %cond.true27 ]
  ret i1 %retval.0

eh.resume:                                        ; preds = %lpad40, %lpad
  %ref.tmp38.sink = phi ptr [ %ref.tmp38, %lpad40 ], [ %ref.tmp7, %lpad ]
  %.pn = phi { ptr, i32 } [ %7, %lpad40 ], [ %2, %lpad ]
  call void @_ZN6google10LogMessageD1Ev(ptr noundef nonnull align 8 dereferenceable(96) %ref.tmp38.sink) #7
  resume { ptr, i32 } %.pn
}